target datalayout = "e-m:e-p270:32:32-p271:32:32-p272:64:64-i64:64-i128:128-f80:128-n8:16:32:64-S128"
target triple = "x86_64-pc-linux-gnu"

%struct.Abc_Frame_t_ = type { ptr, ptr, ptr, ptr, ptr, ptr, ptr, ptr, ptr, ptr, i32, i32, i32, i32, i32, ptr, float, float, i32, i32, ptr, ptr, ptr, double, double, ptr, ptr, ptr, ptr, ptr, ptr, ptr, ptr, ptr, ptr, ptr, ptr, float, ptr, i32, ptr, ptr, ptr, ptr, ptr, i32, i32, i32, i32, i32, i32, ptr, ptr, ptr, ptr, ptr, ptr, i32, i32, ptr, ptr, ptr, ptr, ptr, ptr, ptr, ptr, ptr, ptr, ptr, ptr, ptr, ptr, ptr, ptr, ptr, ptr, ptr, ptr, ptr, ptr, ptr, ptr, ptr, ptr, ptr, ptr, ptr, ptr }

@.str.7 = private unnamed_addr constant [3 x i8] c"vh\00", align 1
@globalUtilOptind = external global i32, align 4
@.str.8 = private unnamed_addr constant [76 x i8] c"Abc_CommandReadPla(): Input file name should be given on the command line.\0A\00", align 1
@.str.9 = private unnamed_addr constant [2 x i8] c"r\00", align 1
@.str.10 = private unnamed_addr constant [30 x i8] c"Cannot open input file \22%s\22. \00", align 1
@.str.11 = private unnamed_addr constant [5 x i8] c".pla\00", align 1
@.str.12 = private unnamed_addr constant [19 x i8] c"Did you mean \22%s\22?\00", align 1
@.str.13 = private unnamed_addr constant [2 x i8] c"\0A\00", align 1
@.str.14 = private unnamed_addr constant [4 x i8] c"pla\00", align 1
@.str.15 = private unnamed_addr constant [47 x i8] c"Abc_CommandReadPla(): Unknown file extension.\0A\00", align 1
@.str.16 = private unnamed_addr constant [32 x i8] c"usage: |read [-vh] <file_name>\0A\00", align 1
@.str.17 = private unnamed_addr constant [41 x i8] c"\09         reads the SOP from a PLA file\0A\00", align 1
@.str.18 = private unnamed_addr constant [62 x i8] c"\09-v     : toggle printing verbose information [default = %s]\0A\00", align 1
@.str.19 = private unnamed_addr constant [4 x i8] c"yes\00", align 1
@.str.20 = private unnamed_addr constant [3 x i8] c"no\00", align 1
@.str.21 = private unnamed_addr constant [35 x i8] c"\09-h     : print the command usage\0A\00", align 1

; Function Attrs: inlinehint nounwind uwtable
define internal void @Pla_AbcUpdateMan(ptr noundef %0, ptr noundef %1) #2 {
  %3 = alloca ptr, align 8
  %4 = alloca ptr, align 8
  store ptr %0, ptr %3, align 8, !tbaa !3
  store ptr %1, ptr %4, align 8, !tbaa !12
  %5 = load ptr, ptr %3, align 8, !tbaa !3
  call void @Pla_AbcFreeMan(ptr noundef %5)
  %6 = load ptr, ptr %4, align 8, !tbaa !12
  %7 = load ptr, ptr %3, align 8, !tbaa !3
  %8 = getelementptr inbounds nuw %struct.Abc_Frame_t_, ptr %7, i32 0, i32 76
  store ptr %6, ptr %8, align 8, !tbaa !34
  ret void
}

; Function Attrs: nounwind uwtable
define internal i32 @Abc_CommandReadPla(ptr noundef %0, i32 noundef %1, ptr noundef %2) #0 {
  %4 = alloca i32, align 4
  %5 = alloca ptr, align 8
  %6 = alloca i32, align 4
  %7 = alloca ptr, align 8
  %8 = alloca ptr, align 8
  %9 = alloca ptr, align 8
  %10 = alloca ptr, align 8
  %11 = alloca i32, align 4
  %12 = alloca i32, align 4
  %13 = alloca i32, align 4
  store ptr %0, ptr %5, align 8, !tbaa !3
  store i32 %1, ptr %6, align 4, !tbaa !8
  store ptr %2, ptr %7, align 8, !tbaa !10
  call void @llvm.lifetime.start.p0(i64 8, ptr %8) #8
  call void @llvm.lifetime.start.p0(i64 8, ptr %9) #8
  store ptr null, ptr %9, align 8, !tbaa !12
  call void @llvm.lifetime.start.p0(i64 8, ptr %10) #8
  store ptr null, ptr %10, align 8, !tbaa !14
  call void @llvm.lifetime.start.p0(i64 4, ptr %11) #8
  call void @llvm.lifetime.start.p0(i64 4, ptr %12) #8
  store i32 0, ptr %12, align 4, !tbaa !8
  call void (...) @Extra_UtilGetoptReset()
  br label %14

14:                                               ; preds = %26, %3
  %15 = load i32, ptr %6, align 4, !tbaa !8
  %16 = load ptr, ptr %7, align 8, !tbaa !10
  %17 = call i32 @Extra_UtilGetopt(i32 noundef %15, ptr noundef %16, ptr noundef @.str.7)
  store i32 %17, ptr %11, align 4, !tbaa !8
  %18 = icmp ne i32 %17, -1
  br i1 %18, label %19, label %27

19:                                               ; preds = %14
  %20 = load i32, ptr %11, align 4, !tbaa !8
  switch i32 %20, label %25 [
    i32 118, label %21
    i32 104, label %24
  ]

21:                                               ; preds = %19
  %22 = load i32, ptr %12, align 4, !tbaa !8
  %23 = xor i32 %22, 1
  store i32 %23, ptr %12, align 4, !tbaa !8
  br label %26

24:                                               ; preds = %19
  br label %66

25:                                               ; preds = %19
  br label %66

26:                                               ; preds = %21
  br label %14, !llvm.loop !16

27:                                               ; preds = %14
  %28 = load i32, ptr %6, align 4, !tbaa !8
  %29 = load i32, ptr @globalUtilOptind, align 4, !tbaa !8
  %30 = add nsw i32 %29, 1
  %31 = icmp ne i32 %28, %30
  br i1 %31, label %32, label %34

32:                                               ; preds = %27
  %33 = call i32 (ptr, ...) @printf(ptr noundef @.str.8)
  store i32 0, ptr %4, align 4
  store i32 1, ptr %13, align 4
  br label %70

34:                                               ; preds = %27
  %35 = load ptr, ptr %7, align 8, !tbaa !10
  %36 = load i32, ptr @globalUtilOptind, align 4, !tbaa !8
  %37 = sext i32 %36 to i64
  %38 = getelementptr inbounds ptr, ptr %35, i64 %37
  %39 = load ptr, ptr %38, align 8, !tbaa !14
  store ptr %39, ptr %10, align 8, !tbaa !14
  %40 = load ptr, ptr %10, align 8, !tbaa !14
  %41 = call noalias ptr @fopen(ptr noundef %40, ptr noundef @.str.9)
  store ptr %41, ptr %8, align 8, !tbaa !18
  %42 = icmp eq ptr %41, null
  br i1 %42, label %43, label %51

43:                                               ; preds = %34
  %44 = load ptr, ptr %10, align 8, !tbaa !14
  call void (i32, ptr, ...) @Abc_Print(i32 noundef 1, ptr noundef @.str.10, ptr noundef %44)
  %45 = load ptr, ptr %10, align 8, !tbaa !14
  %46 = call ptr @Extra_FileGetSimilarName(ptr noundef %45, ptr noundef @.str.11, ptr noundef null, ptr noundef null, ptr noundef null, ptr noundef null)
  store ptr %46, ptr %10, align 8, !tbaa !14
  %47 = icmp ne ptr %46, null
  br i1 %47, label %48, label %50

48:                                               ; preds = %43
  %49 = load ptr, ptr %10, align 8, !tbaa !14
  call void (i32, ptr, ...) @Abc_Print(i32 noundef 1, ptr noundef @.str.12, ptr noundef %49)
  br label %50

50:                                               ; preds = %48, %43
  call void (i32, ptr, ...) @Abc_Print(i32 noundef 1, ptr noundef @.str.13)
  store i32 0, ptr %4, align 4
  store i32 1, ptr %13, align 4
  br label %70

51:                                               ; preds = %34
  %52 = load ptr, ptr %8, align 8, !tbaa !18
  %53 = call i32 @fclose(ptr noundef %52)
  %54 = load ptr, ptr %10, align 8, !tbaa !14
  %55 = call ptr @Extra_FileNameExtension(ptr noundef %54)
  %56 = call i32 @strcmp(ptr noundef %55, ptr noundef @.str.14) #9
  %57 = icmp ne i32 %56, 0
  br i1 %57, label %61, label %58

58:                                               ; preds = %51
  %59 = load ptr, ptr %10, align 8, !tbaa !14
  %60 = call ptr @Pla_ReadPla(ptr noundef %59)
  store ptr %60, ptr %9, align 8, !tbaa !12
  br label %63

61:                                               ; preds = %51
  %62 = call i32 (ptr, ...) @printf(ptr noundef @.str.15)
  store i32 0, ptr %4, align 4
  store i32 1, ptr %13, align 4
  br label %70

63:                                               ; preds = %58
  %64 = load ptr, ptr %5, align 8, !tbaa !3
  %65 = load ptr, ptr %9, align 8, !tbaa !12
  call void @Pla_AbcUpdateMan(ptr noundef %64, ptr noundef %65)
  store i32 0, ptr %4, align 4
  store i32 1, ptr %13, align 4
  br label %70

66:                                               ; preds = %25, %24
  call void (i32, ptr, ...) @Abc_Print(i32 noundef -2, ptr noundef @.str.16)
  call void (i32, ptr, ...) @Abc_Print(i32 noundef -2, ptr noundef @.str.17)
  %67 = load i32, ptr %12, align 4, !tbaa !8
  %68 = icmp ne i32 %67, 0
  %69 = select i1 %68, ptr @.str.19, ptr @.str.20
  call void (i32, ptr, ...) @Abc_Print(i32 noundef -2, ptr noundef @.str.18, ptr noundef %69)
  call void (i32, ptr, ...) @Abc_Print(i32 noundef -2, ptr noundef @.str.21)
  store i32 1, ptr %4, align 4
  store i32 1, ptr %13, align 4
  br label %70

70:                                               ; preds = %66, %63, %61, %50, %32
  call void @llvm.lifetime.end.p0(i64 4, ptr %12) #8
  call void @llvm.lifetime.end.p0(i64 4, ptr %11) #8
  call void @llvm.lifetime.end.p0(i64 8, ptr %10) #8
  call void @llvm.lifetime.end.p0(i64 8, ptr %9) #8
  call void @llvm.lifetime.end.p0(i64 8, ptr %8) #8
  %71 = load i32, ptr %4, align 4
  ret i32 %71
}