; Function Attrs: nounwind uwtable
define internal range(i32 0, 2) i32 @Abc_CommandReadPla(ptr noundef captures(none) %0, i32 noundef %1, ptr noundef %2) #0 {
  tail call void (...) @Extra_UtilGetoptReset() #10
  br label %4

4:                                                ; preds = %6, %3
  %.0 = phi i32 [ 0, %3 ], [ %7, %6 ]
  %5 = tail call i32 @Extra_UtilGetopt(i32 noundef %1, ptr noundef %2, ptr noundef nonnull @.str.7) #10
  switch i32 %5, label %30 [
    i32 -1, label %8
    i32 118, label %6
  ]

6:                                                ; preds = %4
  %7 = xor i32 %.0, 1
  br label %4, !llvm.loop !3

8:                                                ; preds = %4
  %9 = load i32, ptr @globalUtilOptind, align 4, !tbaa !5
  %10 = add nsw i32 %9, 1
  %.not20 = icmp eq i32 %1, %10
  br i1 %.not20, label %12, label %11

11:                                               ; preds = %8
  %puts23 = tail call i32 @puts(ptr nonnull dereferenceable(1) @str.1)
  br label %32

12:                                               ; preds = %8
  %13 = sext i32 %9 to i64
  %14 = getelementptr inbounds ptr, ptr %2, i64 %13
  %15 = load ptr, ptr %14, align 8, !tbaa !9
  %16 = tail call noalias ptr @fopen(ptr noundef %15, ptr noundef nonnull @.str.9)
  %17 = icmp eq ptr %16, null
  br i1 %17, label %18, label %22

18:                                               ; preds = %12
  tail call void (i32, ptr, ...) @Abc_Print(i32 noundef 1, ptr noundef nonnull @.str.10, ptr noundef %15)
  %19 = tail call ptr @Extra_FileGetSimilarName(ptr noundef %15, ptr noundef nonnull @.str.11, ptr noundef null, ptr noundef null, ptr noundef null, ptr noundef null) #10
  %.not22 = icmp eq ptr %19, null
  br i1 %.not22, label %21, label %20

20:                                               ; preds = %18
  tail call void (i32, ptr, ...) @Abc_Print(i32 noundef 1, ptr noundef nonnull @.str.12, ptr noundef nonnull %19)
  br label %21

21:                                               ; preds = %20, %18
  tail call void (i32, ptr, ...) @Abc_Print(i32 noundef 1, ptr noundef nonnull @.str.13)
  br label %32

22:                                               ; preds = %12
  %23 = tail call i32 @fclose(ptr noundef nonnull %16)
  %24 = tail call ptr @Extra_FileNameExtension(ptr noundef %15) #10
  %25 = tail call i32 @strcmp(ptr noundef nonnull dereferenceable(1) %24, ptr noundef nonnull dereferenceable(4) @.str.14) #11
  %.not21 = icmp eq i32 %25, 0
  br i1 %.not21, label %26, label %29

26:                                               ; preds = %22
  %27 = tail call ptr @Pla_ReadPla(ptr noundef %15) #10
  %28 = getelementptr i8, ptr %0, i64 544
  %.val.i = load ptr, ptr %28, align 8, !tbaa !12
  tail call fastcc void @Pla_AbcFreeMan(ptr %.val.i)
  store ptr %27, ptr %28, align 8, !tbaa !12
  br label %32

29:                                               ; preds = %22
  %puts = tail call i32 @puts(ptr nonnull dereferenceable(1) @str)
  br label %32

30:                                               ; preds = %4
  tail call void (i32, ptr, ...) @Abc_Print(i32 noundef -2, ptr noundef nonnull @.str.16)
  tail call void (i32, ptr, ...) @Abc_Print(i32 noundef -2, ptr noundef nonnull @.str.17)
  %.not24 = icmp eq i32 %.0, 0
  %31 = select i1 %.not24, ptr @.str.20, ptr @.str.19
  tail call void (i32, ptr, ...) @Abc_Print(i32 noundef -2, ptr noundef nonnull @.str.18, ptr noundef nonnull %31)
  tail call void (i32, ptr, ...) @Abc_Print(i32 noundef -2, ptr noundef nonnull @.str.21)
  br label %32

32:                                               ; preds = %30, %26, %29, %21, %11
  %.016 = phi i32 [ 1, %30 ], [ 0, %11 ], [ 0, %21 ], [ 0, %29 ], [ 0, %26 ]
  ret i32 %.016
}